target datalayout = "e-m:e-p270:32:32-p271:32:32-p272:64:64-i64:64-i128:128-f80:128-n8:16:32:64-S128"
target triple = "x86_64-pc-linux-gnu"

@mongo_handle = internal global ptr null, align 8

; Function Attrs: null_pointer_is_valid sspstrong uwtable
define internal i32 @dissect_mongo(ptr noundef %0, ptr noundef %1, ptr noundef %2, ptr noundef %3) #0 {
  %5 = alloca ptr, align 8
  %6 = alloca ptr, align 8
  %7 = alloca ptr, align 8
  %8 = alloca ptr, align 8
  store ptr %0, ptr %5, align 8
  store ptr %1, ptr %6, align 8
  store ptr %2, ptr %7, align 8
  store ptr %3, ptr %8, align 8
  %9 = load ptr, ptr %5, align 8
  %10 = load ptr, ptr %6, align 8
  %11 = load ptr, ptr %7, align 8
  %12 = load ptr, ptr %8, align 8
  call void @tcp_dissect_pdus(ptr noundef %9, ptr noundef %10, ptr noundef %11, i1 noundef zeroext true, i32 noundef 4, ptr noundef @get_mongo_pdu_len, ptr noundef @dissect_mongo_pdu, ptr noundef %12)
  %13 = load ptr, ptr %5, align 8
  %14 = call i32 @tvb_captured_length(ptr noundef %13)
  ret i32 %14
}

; Function Attrs: null_pointer_is_valid sspstrong uwtable
define internal zeroext i1 @test_mongo(ptr noundef %0, ptr noundef %1, i32 noundef %2, ptr noundef %3) #0 {
  %5 = alloca i1, align 1
  %6 = alloca ptr, align 8
  %7 = alloca ptr, align 8
  %8 = alloca i32, align 4
  %9 = alloca ptr, align 8
  %10 = alloca i32, align 4
  %11 = alloca i32, align 4
  store ptr %0, ptr %6, align 8
  store ptr %1, ptr %7, align 8
  store i32 %2, ptr %8, align 4
  store ptr %3, ptr %9, align 8
  call void @llvm.lifetime.start.p0(i64 4, ptr %10) #5
  %12 = load ptr, ptr %7, align 8
  %13 = load i32, ptr %8, align 4
  %14 = call i32 @tvb_captured_length_remaining(ptr noundef %12, i32 noundef %13)
  %15 = icmp slt i32 %14, 16
  br i1 %15, label %16, label %17

16:                                               ; preds = %4
  store i1 false, ptr %5, align 1
  store i32 1, ptr %11, align 4
  br label %31

17:                                               ; preds = %4
  %18 = load ptr, ptr %7, align 8
  %19 = load i32, ptr %8, align 4
  %20 = call i32 @tvb_get_letohil(ptr noundef %18, i32 noundef %19)
  %21 = icmp slt i32 %20, 4
  br i1 %21, label %22, label %23

22:                                               ; preds = %17
  store i1 false, ptr %5, align 1
  store i32 1, ptr %11, align 4
  br label %31

23:                                               ; preds = %17
  %24 = load ptr, ptr %7, align 8
  %25 = load i32, ptr %8, align 4
  %26 = add i32 %25, 12
  %27 = call i32 @tvb_get_letohl(ptr noundef %24, i32 noundef %26)
  store i32 %27, ptr %10, align 4
  %28 = load i32, ptr %10, align 4
  %29 = call ptr @try_val_to_str(i32 noundef %28, ptr noundef @opcode_vals)
  %30 = icmp ne ptr %29, null
  store i1 %30, ptr %5, align 1
  store i32 1, ptr %11, align 4
  br label %31

31:                                               ; preds = %23, %22, %16
  call void @llvm.lifetime.end.p0(i64 4, ptr %10) #5
  %32 = load i1, ptr %5, align 1
  ret i1 %32
}

; Function Attrs: null_pointer_is_valid sspstrong uwtable
define internal i32 @dissect_mongo_tcp_heur(ptr noundef %0, ptr noundef %1, ptr noundef %2, ptr noundef %3) #0 {
  %5 = alloca i32, align 4
  %6 = alloca ptr, align 8
  %7 = alloca ptr, align 8
  %8 = alloca ptr, align 8
  %9 = alloca ptr, align 8
  %10 = alloca ptr, align 8
  store ptr %0, ptr %6, align 8
  store ptr %1, ptr %7, align 8
  store ptr %2, ptr %8, align 8
  store ptr %3, ptr %9, align 8
  %11 = load ptr, ptr %7, align 8
  %12 = load ptr, ptr %6, align 8
  %13 = load ptr, ptr %9, align 8
  %14 = call zeroext i1 @test_mongo(ptr noundef %11, ptr noundef %12, i32 noundef 0, ptr noundef %13)
  br i1 %14, label %16, label %15

15:                                               ; preds = %4
  store i32 0, ptr %5, align 4
  br label %26

16:                                               ; preds = %4
  call void @llvm.lifetime.start.p0(i64 8, ptr %10) #5
  %17 = load ptr, ptr %7, align 8
  %18 = call ptr @find_or_create_conversation(ptr noundef %17)
  store ptr %18, ptr %10, align 8
  %19 = load ptr, ptr %10, align 8
  %20 = load ptr, ptr @mongo_handle, align 8
  call void @conversation_set_dissector(ptr noundef %19, ptr noundef %20)
  %21 = load ptr, ptr %6, align 8
  %22 = load ptr, ptr %7, align 8
  %23 = load ptr, ptr %8, align 8
  %24 = load ptr, ptr %9, align 8
  %25 = call i32 @dissect_mongo(ptr noundef %21, ptr noundef %22, ptr noundef %23, ptr noundef %24)
  store i32 %25, ptr %5, align 4
  call void @llvm.lifetime.end.p0(i64 8, ptr %10) #5
  br label %26

26:                                               ; preds = %16, %15
  %27 = load i32, ptr %5, align 4
  ret i32 %27
}