; Function Attrs: null_pointer_is_valid sspstrong uwtable
define internal i32 @dissect_mongo_tcp_heur(ptr noundef %0, ptr noundef %1, ptr noundef %2, ptr noundef %3) #0 {
  %5 = tail call i32 @tvb_captured_length_remaining(ptr noundef %0, i32 noundef 0)
  %6 = icmp slt i32 %5, 16
  br i1 %6, label %test_mongo.exit.thread, label %7

7:                                                ; preds = %4
  %8 = tail call i32 @tvb_get_letohil(ptr noundef %0, i32 noundef 0)
  %9 = icmp slt i32 %8, 4
  br i1 %9, label %test_mongo.exit.thread, label %test_mongo.exit

test_mongo.exit:                                  ; preds = %7
  %10 = tail call i32 @tvb_get_letohl(ptr noundef %0, i32 noundef 12)
  %11 = tail call ptr @try_val_to_str(i32 noundef %10, ptr noundef nonnull @opcode_vals)
  %.not = icmp eq ptr %11, null
  br i1 %.not, label %test_mongo.exit.thread, label %12

12:                                               ; preds = %test_mongo.exit
  %13 = tail call ptr @find_or_create_conversation(ptr noundef %1)
  %14 = load ptr, ptr @mongo_handle, align 8
  tail call void @conversation_set_dissector(ptr noundef %13, ptr noundef %14)
  tail call void @tcp_dissect_pdus(ptr noundef %0, ptr noundef %1, ptr noundef %2, i1 noundef zeroext true, i32 noundef 4, ptr noundef nonnull @get_mongo_pdu_len, ptr noundef nonnull @dissect_mongo_pdu, ptr noundef %3)
  %15 = tail call i32 @tvb_captured_length(ptr noundef %0)
  br label %test_mongo.exit.thread

test_mongo.exit.thread:                           ; preds = %7, %4, %test_mongo.exit, %12
  %.0 = phi i32 [ %15, %12 ], [ 0, %test_mongo.exit ], [ 0, %4 ], [ 0, %7 ]
  ret i32 %.0
}